; Function Attrs: mustprogress nounwind uwtable
define void @_ZN4YAML7EmitterD2Ev(ptr noundef nonnull align 8 dereferenceable(72) %0) unnamed_addr #4 align 2 personality ptr @__gxx_personality_v0 {
  %2 = getelementptr inbounds nuw i8, ptr %0, i64 8
  tail call void @_ZN4YAML15ostream_wrapperD1Ev(ptr noundef nonnull align 8 dereferenceable(57) %2) #18
  %3 = load ptr, ptr %0, align 8, !tbaa !3
  %.not.i = icmp eq ptr %3, null
  br i1 %.not.i, label %_ZNSt10unique_ptrIN4YAML12EmitterStateESt14default_deleteIS1_EED2Ev.exit, label %_ZNKSt14default_deleteIN4YAML12EmitterStateEEclEPS1_.exit.i

_ZNKSt14default_deleteIN4YAML12EmitterStateEEclEPS1_.exit.i: ; preds = %1
  tail call void @_ZN4YAML12EmitterStateD1Ev(ptr noundef nonnull align 8 dereferenceable(224) %3) #18
  tail call void @_ZdlPv(ptr noundef nonnull %3) #17
  br label %_ZNSt10unique_ptrIN4YAML12EmitterStateESt14default_deleteIS1_EED2Ev.exit

_ZNSt10unique_ptrIN4YAML12EmitterStateESt14default_deleteIS1_EED2Ev.exit: ; preds = %1, %_ZNKSt14default_deleteIN4YAML12EmitterStateEEclEPS1_.exit.i
  store ptr null, ptr %0, align 8, !tbaa !3
  ret void
}